; Function Attrs: mustprogress uwtable
define noundef nonnull align 8 dereferenceable(448) ptr @_ZNK4cvc58internal8TypeNode8getDTypeEv(ptr noundef nonnull readonly align 8 captures(none) dereferenceable(8) %0) local_unnamed_addr #4 align 2 personality ptr @__gxx_personality_v0 {
  %2 = alloca %"class.cvc5::internal::TypeNode", align 8
  %3 = load ptr, ptr %0, align 8, !tbaa !3
  %4 = getelementptr inbounds nuw i8, ptr %3, i64 16
  %5 = load ptr, ptr %4, align 8, !tbaa !28
  store ptr %3, ptr %2, align 8, !tbaa !3
  %6 = load i64, ptr %3, align 8
  %7 = lshr i64 %6, 40
  %8 = trunc nuw nsw i64 %7 to i32
  %9 = and i32 %8, 1048575
  %10 = icmp samesign ult i32 %9, 1048574
  br i1 %10, label %11, label %16, !prof !27

11:                                               ; preds = %1
  %12 = add i64 %6, 1099511627776
  %13 = and i64 %12, 1152920405095219200
  %14 = and i64 %6, -1152920405095219201
  %15 = or disjoint i64 %13, %14
  store i64 %15, ptr %3, align 8
  br label %_ZN4cvc58internal8TypeNodeC2ERKS1_.exit

16:                                               ; preds = %1
  %17 = icmp eq i32 %9, 1048574
  br i1 %17, label %18, label %_ZN4cvc58internal8TypeNodeC2ERKS1_.exit, !prof !9

18:                                               ; preds = %16
  %19 = or i64 %6, 1152920405095219200
  store i64 %19, ptr %3, align 8
  tail call void @_ZN4cvc58internal4expr9NodeValue20markRefCountMaxedOutEv(ptr noundef nonnull align 8 dereferenceable(24) %3)
  br label %_ZN4cvc58internal8TypeNodeC2ERKS1_.exit

_ZN4cvc58internal8TypeNodeC2ERKS1_.exit:          ; preds = %11, %16, %18
  %20 = invoke noundef nonnull align 8 dereferenceable(448) ptr @_ZNK4cvc58internal11NodeManager11getDTypeForENS0_8TypeNodeE(ptr noundef nonnull align 8 dereferenceable(3560) %5, ptr noundef nonnull %2)
          to label %21 unwind label %35

21:                                               ; preds = %_ZN4cvc58internal8TypeNodeC2ERKS1_.exit
  %22 = load ptr, ptr %2, align 8, !tbaa !3
  %23 = load i64, ptr %22, align 8
  %24 = and i64 %23, 1152920405095219200
  %.not.i.i = icmp eq i64 %24, 1152920405095219200
  br i1 %.not.i.i, label %_ZN4cvc58internal8TypeNodeD2Ev.exit, label %25, !prof !9

25:                                               ; preds = %21
  %26 = add i64 %23, 1152920405095219200
  %27 = and i64 %26, 1152920405095219200
  %28 = and i64 %23, -1152920405095219201
  %29 = or disjoint i64 %27, %28
  store i64 %29, ptr %22, align 8
  %30 = icmp eq i64 %27, 0
  br i1 %30, label %31, label %_ZN4cvc58internal8TypeNodeD2Ev.exit, !prof !9

31:                                               ; preds = %25
  invoke void @_ZN4cvc58internal4expr9NodeValue15markForDeletionEv(ptr noundef nonnull align 8 dereferenceable(24) %22)
          to label %_ZN4cvc58internal8TypeNodeD2Ev.exit unwind label %32

32:                                               ; preds = %31
  %33 = landingpad { ptr, i32 }
          catch ptr null
  %34 = extractvalue { ptr, i32 } %33, 0
  call void @__clang_call_terminate(ptr %34) #23
  unreachable

_ZN4cvc58internal8TypeNodeD2Ev.exit:              ; preds = %21, %25, %31
  ret ptr %20

35:                                               ; preds = %_ZN4cvc58internal8TypeNodeC2ERKS1_.exit
  %36 = landingpad { ptr, i32 }
          cleanup
  call void @_ZN4cvc58internal8TypeNodeD2Ev(ptr noundef nonnull align 8 dereferenceable(8) %2) #24
  resume { ptr, i32 } %36
}